target datalayout = "e-m:e-p270:32:32-p271:32:32-p272:64:64-i64:64-i128:128-f80:128-n8:16:32:64-S128"
target triple = "x86_64-pc-linux-gnu"

%struct.AVFilterLink = type { ptr, ptr, ptr, ptr, i32, i32, i32, i32, %struct.AVRational, i32, i32, i32, %struct.AVChannelLayout, %struct.AVRational, ptr, i32, %struct.AVFilterFormatsConfig, %struct.AVFilterFormatsConfig }
%struct.AVChannelLayout = type { i32, i32, %union.anon.1, ptr }
%union.anon.1 = type { i64 }
%struct.AVRational = type { i32, i32 }
%struct.AVFilterFormatsConfig = type { ptr, ptr, ptr, ptr, ptr }
%struct.AVFilterContext = type { ptr, ptr, ptr, ptr, ptr, i32, ptr, ptr, i32, ptr, ptr, i32, i32, ptr, ptr, ptr, ptr, i32, ptr, i32, i32 }
%struct.AspectContext = type { ptr, %struct.AVRational, %struct.AVRational, i32, ptr }

@.str.5 = private unnamed_addr constant [54 x i8] c"w:%d h:%d dar:%d/%d sar:%d/%d -> dar:%d/%d sar:%d/%d\0A\00", align 1

; Function Attrs: inlinehint nounwind uwtable
define internal void @compute_dar(ptr noundef %0, i64 %1, i32 noundef %2, i32 noundef %3) #4 {
  %5 = alloca %struct.AVRational, align 4
  %6 = alloca ptr, align 8
  %7 = alloca i32, align 4
  %8 = alloca i32, align 4
  store i64 %1, ptr %5, align 4
  store ptr %0, ptr %6, align 8, !tbaa !50
  store i32 %2, ptr %7, align 4, !tbaa !36
  store i32 %3, ptr %8, align 4, !tbaa !36
  %9 = getelementptr inbounds nuw %struct.AVRational, ptr %5, i32 0, i32 0
  %10 = load i32, ptr %9, align 4, !tbaa !46
  %11 = icmp ne i32 %10, 0
  br i1 %11, label %12, label %34

12:                                               ; preds = %4
  %13 = getelementptr inbounds nuw %struct.AVRational, ptr %5, i32 0, i32 1
  %14 = load i32, ptr %13, align 4, !tbaa !47
  %15 = icmp ne i32 %14, 0
  br i1 %15, label %16, label %34

16:                                               ; preds = %12
  %17 = load ptr, ptr %6, align 8, !tbaa !50
  %18 = getelementptr inbounds nuw %struct.AVRational, ptr %17, i32 0, i32 0
  %19 = load ptr, ptr %6, align 8, !tbaa !50
  %20 = getelementptr inbounds nuw %struct.AVRational, ptr %19, i32 0, i32 1
  %21 = getelementptr inbounds nuw %struct.AVRational, ptr %5, i32 0, i32 0
  %22 = load i32, ptr %21, align 4, !tbaa !46
  %23 = sext i32 %22 to i64
  %24 = load i32, ptr %7, align 4, !tbaa !36
  %25 = sext i32 %24 to i64
  %26 = mul nsw i64 %23, %25
  %27 = getelementptr inbounds nuw %struct.AVRational, ptr %5, i32 0, i32 1
  %28 = load i32, ptr %27, align 4, !tbaa !47
  %29 = sext i32 %28 to i64
  %30 = load i32, ptr %8, align 4, !tbaa !36
  %31 = sext i32 %30 to i64
  %32 = mul nsw i64 %29, %31
  %33 = call i32 @av_reduce(ptr noundef %18, ptr noundef %20, i64 noundef %26, i64 noundef %32, i64 noundef 2147483647)
  br label %44

34:                                               ; preds = %12, %4
  %35 = load ptr, ptr %6, align 8, !tbaa !50
  %36 = getelementptr inbounds nuw %struct.AVRational, ptr %35, i32 0, i32 0
  %37 = load ptr, ptr %6, align 8, !tbaa !50
  %38 = getelementptr inbounds nuw %struct.AVRational, ptr %37, i32 0, i32 1
  %39 = load i32, ptr %7, align 4, !tbaa !36
  %40 = sext i32 %39 to i64
  %41 = load i32, ptr %8, align 4, !tbaa !36
  %42 = sext i32 %41 to i64
  %43 = call i32 @av_reduce(ptr noundef %36, ptr noundef %38, i64 noundef %40, i64 noundef %42, i64 noundef 2147483647)
  br label %44

44:                                               ; preds = %34, %16
  ret void
}

; Function Attrs: nounwind uwtable
define internal i32 @setdar_config_props(ptr noundef %0) #0 {
  %2 = alloca i32, align 4
  %3 = alloca ptr, align 8
  %4 = alloca ptr, align 8
  %5 = alloca ptr, align 8
  %6 = alloca ptr, align 8
  %7 = alloca %struct.AVRational, align 4
  %8 = alloca %struct.AVRational, align 4
  %9 = alloca %struct.AVRational, align 4
  %10 = alloca i32, align 4
  %11 = alloca i32, align 4
  %12 = alloca %struct.AVRational, align 4
  %13 = alloca %struct.AVRational, align 4
  store ptr %0, ptr %3, align 8, !tbaa !4
  call void @llvm.lifetime.start.p0(i64 8, ptr %4) #6
  %14 = load ptr, ptr %3, align 8, !tbaa !4
  %15 = getelementptr inbounds nuw %struct.AVFilterLink, ptr %14, i32 0, i32 0
  %16 = load ptr, ptr %15, align 8, !tbaa !38
  store ptr %16, ptr %4, align 8, !tbaa !39
  call void @llvm.lifetime.start.p0(i64 8, ptr %5) #6
  %17 = load ptr, ptr %4, align 8, !tbaa !39
  %18 = getelementptr inbounds nuw %struct.AVFilterContext, ptr %17, i32 0, i32 4
  %19 = load ptr, ptr %18, align 8, !tbaa !40
  %20 = getelementptr inbounds ptr, ptr %19, i64 0
  %21 = load ptr, ptr %20, align 8, !tbaa !4
  store ptr %21, ptr %5, align 8, !tbaa !4
  call void @llvm.lifetime.start.p0(i64 8, ptr %6) #6
  %22 = load ptr, ptr %4, align 8, !tbaa !39
  %23 = getelementptr inbounds nuw %struct.AVFilterContext, ptr %22, i32 0, i32 9
  %24 = load ptr, ptr %23, align 8, !tbaa !23
  store ptr %24, ptr %6, align 8, !tbaa !33
  call void @llvm.lifetime.start.p0(i64 8, ptr %7) #6
  call void @llvm.lifetime.start.p0(i64 8, ptr %8) #6
  call void @llvm.lifetime.start.p0(i64 8, ptr %9) #6
  %25 = load ptr, ptr %5, align 8, !tbaa !4
  %26 = getelementptr inbounds nuw %struct.AVFilterLink, ptr %25, i32 0, i32 8
  call void @llvm.memcpy.p0.p0.i64(ptr align 4 %9, ptr align 8 %26, i64 8, i1 false), !tbaa.struct !35
  call void @llvm.lifetime.start.p0(i64 4, ptr %10) #6
  %27 = load ptr, ptr %5, align 8, !tbaa !4
  %28 = load ptr, ptr %6, align 8, !tbaa !33
  %29 = getelementptr inbounds nuw %struct.AspectContext, ptr %28, i32 0, i32 1
  %30 = call i32 @get_aspect_ratio(ptr noundef %27, ptr noundef %29)
  store i32 %30, ptr %10, align 4, !tbaa !36
  %31 = icmp ne i32 %30, 0
  br i1 %31, label %32, label %34

32:                                               ; preds = %1
  %33 = load i32, ptr %10, align 4, !tbaa !36
  store i32 %33, ptr %2, align 4
  store i32 1, ptr %11, align 4
  br label %126

34:                                               ; preds = %1
  %35 = load ptr, ptr %6, align 8, !tbaa !33
  %36 = getelementptr inbounds nuw %struct.AspectContext, ptr %35, i32 0, i32 1
  %37 = getelementptr inbounds nuw %struct.AVRational, ptr %36, i32 0, i32 0
  %38 = load i32, ptr %37, align 8, !tbaa !41
  %39 = icmp ne i32 %38, 0
  br i1 %39, label %40, label %78

40:                                               ; preds = %34
  %41 = load ptr, ptr %6, align 8, !tbaa !33
  %42 = getelementptr inbounds nuw %struct.AspectContext, ptr %41, i32 0, i32 1
  %43 = getelementptr inbounds nuw %struct.AVRational, ptr %42, i32 0, i32 1
  %44 = load i32, ptr %43, align 4, !tbaa !43
  %45 = icmp ne i32 %44, 0
  br i1 %45, label %46, label %78

46:                                               ; preds = %40
  %47 = load ptr, ptr %6, align 8, !tbaa !33
  %48 = getelementptr inbounds nuw %struct.AspectContext, ptr %47, i32 0, i32 2
  %49 = getelementptr inbounds nuw %struct.AVRational, ptr %48, i32 0, i32 0
  %50 = load ptr, ptr %6, align 8, !tbaa !33
  %51 = getelementptr inbounds nuw %struct.AspectContext, ptr %50, i32 0, i32 2
  %52 = getelementptr inbounds nuw %struct.AVRational, ptr %51, i32 0, i32 1
  %53 = load ptr, ptr %6, align 8, !tbaa !33
  %54 = getelementptr inbounds nuw %struct.AspectContext, ptr %53, i32 0, i32 1
  %55 = getelementptr inbounds nuw %struct.AVRational, ptr %54, i32 0, i32 0
  %56 = load i32, ptr %55, align 8, !tbaa !41
  %57 = load ptr, ptr %5, align 8, !tbaa !4
  %58 = getelementptr inbounds nuw %struct.AVFilterLink, ptr %57, i32 0, i32 7
  %59 = load i32, ptr %58, align 4, !tbaa !44
  %60 = mul nsw i32 %56, %59
  %61 = sext i32 %60 to i64
  %62 = load ptr, ptr %6, align 8, !tbaa !33
  %63 = getelementptr inbounds nuw %struct.AspectContext, ptr %62, i32 0, i32 1
  %64 = getelementptr inbounds nuw %struct.AVRational, ptr %63, i32 0, i32 1
  %65 = load i32, ptr %64, align 4, !tbaa !43
  %66 = load ptr, ptr %5, align 8, !tbaa !4
  %67 = getelementptr inbounds nuw %struct.AVFilterLink, ptr %66, i32 0, i32 6
  %68 = load i32, ptr %67, align 8, !tbaa !45
  %69 = mul nsw i32 %65, %68
  %70 = sext i32 %69 to i64
  %71 = call i32 @av_reduce(ptr noundef %49, ptr noundef %52, i64 noundef %61, i64 noundef %70, i64 noundef 2147483647)
  %72 = load ptr, ptr %3, align 8, !tbaa !4
  %73 = getelementptr inbounds nuw %struct.AVFilterLink, ptr %72, i32 0, i32 8
  %74 = load ptr, ptr %6, align 8, !tbaa !33
  %75 = getelementptr inbounds nuw %struct.AspectContext, ptr %74, i32 0, i32 2
  call void @llvm.memcpy.p0.p0.i64(ptr align 8 %73, ptr align 8 %75, i64 8, i1 false), !tbaa.struct !35
  %76 = load ptr, ptr %6, align 8, !tbaa !33
  %77 = getelementptr inbounds nuw %struct.AspectContext, ptr %76, i32 0, i32 1
  call void @llvm.memcpy.p0.p0.i64(ptr align 4 %7, ptr align 8 %77, i64 8, i1 false), !tbaa.struct !35
  br label %91

78:                                               ; preds = %40, %34
  %79 = load ptr, ptr %3, align 8, !tbaa !4
  %80 = getelementptr inbounds nuw %struct.AVFilterLink, ptr %79, i32 0, i32 8
  %81 = getelementptr inbounds nuw %struct.AVRational, ptr %12, i32 0, i32 0
  store i32 1, ptr %81, align 4, !tbaa !46
  %82 = getelementptr inbounds nuw %struct.AVRational, ptr %12, i32 0, i32 1
  store i32 1, ptr %82, align 4, !tbaa !47
  call void @llvm.memcpy.p0.p0.i64(ptr align 8 %80, ptr align 4 %12, i64 8, i1 false), !tbaa.struct !35
  %83 = getelementptr inbounds nuw %struct.AVRational, ptr %13, i32 0, i32 0
  %84 = load ptr, ptr %5, align 8, !tbaa !4
  %85 = getelementptr inbounds nuw %struct.AVFilterLink, ptr %84, i32 0, i32 6
  %86 = load i32, ptr %85, align 8, !tbaa !45
  store i32 %86, ptr %83, align 4, !tbaa !46
  %87 = getelementptr inbounds nuw %struct.AVRational, ptr %13, i32 0, i32 1
  %88 = load ptr, ptr %5, align 8, !tbaa !4
  %89 = getelementptr inbounds nuw %struct.AVFilterLink, ptr %88, i32 0, i32 7
  %90 = load i32, ptr %89, align 4, !tbaa !44
  store i32 %90, ptr %87, align 4, !tbaa !47
  call void @llvm.memcpy.p0.p0.i64(ptr align 4 %7, ptr align 4 %13, i64 8, i1 false), !tbaa.struct !35
  br label %91

91:                                               ; preds = %78, %46
  %92 = load ptr, ptr %5, align 8, !tbaa !4
  %93 = getelementptr inbounds nuw %struct.AVFilterLink, ptr %92, i32 0, i32 6
  %94 = load i32, ptr %93, align 8, !tbaa !45
  %95 = load ptr, ptr %5, align 8, !tbaa !4
  %96 = getelementptr inbounds nuw %struct.AVFilterLink, ptr %95, i32 0, i32 7
  %97 = load i32, ptr %96, align 4, !tbaa !44
  %98 = load i64, ptr %9, align 4
  call void @compute_dar(ptr noundef %8, i64 %98, i32 noundef %94, i32 noundef %97)
  %99 = load ptr, ptr %4, align 8, !tbaa !39
  %100 = load ptr, ptr %5, align 8, !tbaa !4
  %101 = getelementptr inbounds nuw %struct.AVFilterLink, ptr %100, i32 0, i32 6
  %102 = load i32, ptr %101, align 8, !tbaa !45
  %103 = load ptr, ptr %5, align 8, !tbaa !4
  %104 = getelementptr inbounds nuw %struct.AVFilterLink, ptr %103, i32 0, i32 7
  %105 = load i32, ptr %104, align 4, !tbaa !44
  %106 = getelementptr inbounds nuw %struct.AVRational, ptr %8, i32 0, i32 0
  %107 = load i32, ptr %106, align 4, !tbaa !46
  %108 = getelementptr inbounds nuw %struct.AVRational, ptr %8, i32 0, i32 1
  %109 = load i32, ptr %108, align 4, !tbaa !47
  %110 = getelementptr inbounds nuw %struct.AVRational, ptr %9, i32 0, i32 0
  %111 = load i32, ptr %110, align 4, !tbaa !46
  %112 = getelementptr inbounds nuw %struct.AVRational, ptr %9, i32 0, i32 1
  %113 = load i32, ptr %112, align 4, !tbaa !47
  %114 = getelementptr inbounds nuw %struct.AVRational, ptr %7, i32 0, i32 0
  %115 = load i32, ptr %114, align 4, !tbaa !46
  %116 = getelementptr inbounds nuw %struct.AVRational, ptr %7, i32 0, i32 1
  %117 = load i32, ptr %116, align 4, !tbaa !47
  %118 = load ptr, ptr %3, align 8, !tbaa !4
  %119 = getelementptr inbounds nuw %struct.AVFilterLink, ptr %118, i32 0, i32 8
  %120 = getelementptr inbounds nuw %struct.AVRational, ptr %119, i32 0, i32 0
  %121 = load i32, ptr %120, align 8, !tbaa !48
  %122 = load ptr, ptr %3, align 8, !tbaa !4
  %123 = getelementptr inbounds nuw %struct.AVFilterLink, ptr %122, i32 0, i32 8
  %124 = getelementptr inbounds nuw %struct.AVRational, ptr %123, i32 0, i32 1
  %125 = load i32, ptr %124, align 4, !tbaa !49
  call void (ptr, i32, ptr, ...) @av_log(ptr noundef %99, i32 noundef 40, ptr noundef @.str.5, i32 noundef %102, i32 noundef %105, i32 noundef %107, i32 noundef %109, i32 noundef %111, i32 noundef %113, i32 noundef %115, i32 noundef %117, i32 noundef %121, i32 noundef %125)
  store i32 0, ptr %2, align 4
  store i32 1, ptr %11, align 4
  br label %126

126:                                              ; preds = %91, %32
  call void @llvm.lifetime.end.p0(i64 4, ptr %10) #6
  call void @llvm.lifetime.end.p0(i64 8, ptr %9) #6
  call void @llvm.lifetime.end.p0(i64 8, ptr %8) #6
  call void @llvm.lifetime.end.p0(i64 8, ptr %7) #6
  call void @llvm.lifetime.end.p0(i64 8, ptr %6) #6
  call void @llvm.lifetime.end.p0(i64 8, ptr %5) #6
  call void @llvm.lifetime.end.p0(i64 8, ptr %4) #6
  %127 = load i32, ptr %2, align 4
  ret i32 %127
}