; Function Attrs: nounwind uwtable
define internal range(i32 -2147483648, 1) i32 @setdar_config_props(ptr noundef captures(none) %0) #0 {
  %2 = alloca %struct.AVRational, align 4
  %3 = load ptr, ptr %0, align 8, !tbaa !32
  %4 = getelementptr inbounds nuw i8, ptr %3, i64 32
  %5 = load ptr, ptr %4, align 8, !tbaa !33
  %6 = load ptr, ptr %5, align 8, !tbaa !30
  %7 = getelementptr inbounds nuw i8, ptr %3, i64 72
  %8 = load ptr, ptr %7, align 8, !tbaa !19
  call void @llvm.lifetime.start.p0(i64 8, ptr nonnull %2) #4
  %9 = getelementptr inbounds nuw i8, ptr %6, i64 48
  %.sroa.03.0.copyload = load i32, ptr %9, align 8, !tbaa !34
  %.sroa.5.0..sroa_idx = getelementptr inbounds nuw i8, ptr %6, i64 52
  %.sroa.5.0.copyload = load i32, ptr %.sroa.5.0..sroa_idx, align 4, !tbaa !34
  %10 = getelementptr inbounds nuw i8, ptr %8, i64 8
  %11 = tail call fastcc i32 @get_aspect_ratio(ptr noundef %6, ptr noundef nonnull %10)
  %.not = icmp eq i32 %11, 0
  br i1 %.not, label %12, label %63

12:                                               ; preds = %1
  %13 = load i32, ptr %10, align 8, !tbaa !35
  %.not37 = icmp eq i32 %13, 0
  br i1 %.not37, label %31, label %14

14:                                               ; preds = %12
  %15 = getelementptr inbounds nuw i8, ptr %8, i64 12
  %16 = load i32, ptr %15, align 4, !tbaa !37
  %.not38 = icmp eq i32 %16, 0
  br i1 %.not38, label %31, label %17

17:                                               ; preds = %14
  %18 = getelementptr inbounds nuw i8, ptr %8, i64 16
  %19 = getelementptr inbounds nuw i8, ptr %8, i64 20
  %20 = getelementptr inbounds nuw i8, ptr %6, i64 44
  %21 = load i32, ptr %20, align 4, !tbaa !38
  %22 = mul nsw i32 %21, %13
  %23 = sext i32 %22 to i64
  %24 = getelementptr inbounds nuw i8, ptr %6, i64 40
  %25 = load i32, ptr %24, align 8, !tbaa !39
  %26 = mul nsw i32 %25, %16
  %27 = sext i32 %26 to i64
  %28 = tail call i32 @av_reduce(ptr noundef nonnull %18, ptr noundef nonnull %19, i64 noundef %23, i64 noundef %27, i64 noundef 2147483647) #4
  %29 = getelementptr inbounds nuw i8, ptr %0, i64 48
  %30 = load i64, ptr %18, align 8
  store i64 %30, ptr %29, align 8
  br label %35

31:                                               ; preds = %14, %12
  %32 = getelementptr inbounds nuw i8, ptr %0, i64 48
  store i32 1, ptr %32, align 8, !tbaa !34
  %.sroa.22.0..sroa_idx = getelementptr inbounds nuw i8, ptr %0, i64 52
  store i32 1, ptr %.sroa.22.0..sroa_idx, align 4, !tbaa !34
  %33 = getelementptr inbounds nuw i8, ptr %6, i64 40
  %34 = getelementptr inbounds nuw i8, ptr %6, i64 44
  br label %35

35:                                               ; preds = %31, %17
  %.sroa.05.0.in = phi ptr [ %10, %17 ], [ %33, %31 ]
  %.sroa.56.0.in = phi ptr [ %15, %17 ], [ %34, %31 ]
  %.sroa.56.0 = load i32, ptr %.sroa.56.0.in, align 4, !tbaa !34
  %.sroa.05.0 = load i32, ptr %.sroa.05.0.in, align 8, !tbaa !34
  %36 = getelementptr inbounds nuw i8, ptr %6, i64 40
  %37 = load i32, ptr %36, align 8, !tbaa !39
  %38 = getelementptr inbounds nuw i8, ptr %6, i64 44
  %39 = load i32, ptr %38, align 4, !tbaa !38
  %40 = icmp ne i32 %.sroa.03.0.copyload, 0
  %41 = icmp ne i32 %.sroa.5.0.copyload, 0
  %or.cond.i = and i1 %40, %41
  %42 = getelementptr inbounds nuw i8, ptr %2, i64 4
  br i1 %or.cond.i, label %43, label %51

43:                                               ; preds = %35
  %44 = sext i32 %.sroa.03.0.copyload to i64
  %45 = sext i32 %37 to i64
  %46 = mul nsw i64 %45, %44
  %47 = sext i32 %.sroa.5.0.copyload to i64
  %48 = sext i32 %39 to i64
  %49 = mul nsw i64 %48, %47
  %50 = call i32 @av_reduce(ptr noundef nonnull %2, ptr noundef nonnull %42, i64 noundef %46, i64 noundef %49, i64 noundef 2147483647) #4
  br label %compute_dar.exit

51:                                               ; preds = %35
  %52 = sext i32 %37 to i64
  %53 = sext i32 %39 to i64
  %54 = call i32 @av_reduce(ptr noundef nonnull %2, ptr noundef nonnull %42, i64 noundef %52, i64 noundef %53, i64 noundef 2147483647) #4
  br label %compute_dar.exit

compute_dar.exit:                                 ; preds = %43, %51
  %55 = load i32, ptr %36, align 8, !tbaa !39
  %56 = load i32, ptr %38, align 4, !tbaa !38
  %57 = load i32, ptr %2, align 4, !tbaa !40
  %58 = load i32, ptr %42, align 4, !tbaa !41
  %59 = getelementptr inbounds nuw i8, ptr %0, i64 48
  %60 = load i32, ptr %59, align 8, !tbaa !42
  %61 = getelementptr inbounds nuw i8, ptr %0, i64 52
  %62 = load i32, ptr %61, align 4, !tbaa !43
  call void (ptr, i32, ptr, ...) @av_log(ptr noundef nonnull %3, i32 noundef 40, ptr noundef nonnull @.str.5, i32 noundef %55, i32 noundef %56, i32 noundef %57, i32 noundef %58, i32 noundef %.sroa.03.0.copyload, i32 noundef %.sroa.5.0.copyload, i32 noundef %.sroa.05.0, i32 noundef %.sroa.56.0, i32 noundef %60, i32 noundef %62) #4
  br label %63

63:                                               ; preds = %1, %compute_dar.exit
  call void @llvm.lifetime.end.p0(i64 8, ptr nonnull %2) #4
  ret i32 %11
}